; Function Attrs: nounwind uwtable
define ptr @l_Lake_Toml_escapeSeqFn___lambda__1(ptr noundef readonly captures(none) %0, ptr noundef %1) local_unnamed_addr #1 {
  %3 = tail call ptr @l_Lake_Toml_crlfAuxFn(ptr noundef %0, ptr noundef %1)
  %4 = getelementptr inbounds nuw i8, ptr %3, i64 40
  %5 = load ptr, ptr %4, align 8, !tbaa !10
  %6 = ptrtoint ptr %5 to i64
  %7 = and i64 %6, 1
  %.not = icmp eq i64 %7, 0
  br i1 %.not, label %8, label %lean_inc.exit

8:                                                ; preds = %2
  %.val.i = load i32, ptr %5, align 4, !tbaa !4
  %9 = icmp sgt i32 %.val.i, 0
  br i1 %9, label %10, label %12, !prof !9

10:                                               ; preds = %8
  %11 = add nuw i32 %.val.i, 1
  store i32 %11, ptr %5, align 4, !tbaa !4
  br label %lean_inc.exit

12:                                               ; preds = %8
  %.not.i = icmp eq i32 %.val.i, 0
  br i1 %.not.i, label %lean_inc.exit, label %13

13:                                               ; preds = %12
  tail call void @lean_inc_ref_cold(ptr noundef nonnull %5) #4
  br label %lean_inc.exit

lean_inc.exit:                                    ; preds = %13, %12, %10, %2
  %14 = tail call zeroext i8 @l_Option_beqOption____x40_Init_Data_Option_Basic___hyg_160____at_Lean_Parser_ParserState_hasError___spec__1(ptr noundef %5, ptr noundef nonnull inttoptr (i64 1 to ptr)) #4
  %15 = icmp eq i8 %14, 0
  br i1 %15, label %18, label %16

16:                                               ; preds = %lean_inc.exit
  %17 = tail call ptr @l_Lake_Toml_wsNewlineFn(ptr noundef %0, ptr noundef nonnull %3)
  br label %18

18:                                               ; preds = %lean_inc.exit, %16
  %.0 = phi ptr [ %17, %16 ], [ %3, %lean_inc.exit ]
  ret ptr %.0
}